; ModuleID = '24/2241.c'
source_filename = "24/2241.c"
target datalayout = "e-m:e-p270:32:32-p271:32:32-p272:64:64-i64:64-f80:128-n8:16:32:64-S128"
target triple = "x86_64-pc-linux-gnu"

@.str = private unnamed_addr constant [3 x i8] c"%c\00", align 1
@.str.1 = private unnamed_addr constant [2 x i8] c"\0A\00", align 1

; Function Attrs: noinline nounwind uwtable
define dso_local void @main() #0 {
  %1 = alloca [2000 x i8], align 16
  %2 = alloca [200 x i32], align 16
  %3 = alloca i32, align 4
  %4 = alloca i32, align 4
  %5 = alloca i32, align 4
  %6 = alloca i32, align 4
  %7 = alloca i32, align 4
  %8 = alloca [200 x i32], align 16
  %9 = bitcast [200 x i32]* %2 to i8*
  call void @llvm.memset.p0i8.i64(i8* align 16 %9, i8 0, i64 800, i1 false)
  store i32 1, i32* %4, align 4
  store i32 1, i32* %6, align 4
  store i32 1, i32* %7, align 4
  %10 = bitcast [200 x i32]* %8 to i8*
  call void @llvm.memset.p0i8.i64(i8* align 16 %10, i8 0, i64 800, i1 false)
  %11 = getelementptr inbounds [2000 x i8], [2000 x i8]* %1, i64 0, i64 0
  %12 = call i32 (i8*, ...) bitcast (i32 (...)* @gets to i32 (i8*, ...)*)(i8* %11)
  %13 = getelementptr inbounds [2000 x i8], [2000 x i8]* %1, i64 0, i64 0
  %14 = call i64 @strlen(i8* %13) #4
  %15 = trunc i64 %14 to i32
  store i32 %15, i32* %5, align 4
  store i32 0, i32* %3, align 4
  br label %16

16:                                               ; preds = %56, %0
  %17 = load i32, i32* %3, align 4
  %18 = load i32, i32* %5, align 4
  %19 = icmp slt i32 %17, %18
  br i1 %19, label %20, label %59

20:                                               ; preds = %16
  %21 = load i32, i32* %3, align 4
  %22 = sext i32 %21 to i64
  %23 = getelementptr inbounds [2000 x i8], [2000 x i8]* %1, i64 0, i64 %22
  %24 = load i8, i8* %23, align 1
  %25 = sext i8 %24 to i32
  %26 = icmp ne i32 %25, 44
  br i1 %26, label %27, label %40

27:                                               ; preds = %20
  %28 = load i32, i32* %3, align 4
  %29 = sext i32 %28 to i64
  %30 = getelementptr inbounds [2000 x i8], [2000 x i8]* %1, i64 0, i64 %29
  %31 = load i8, i8* %30, align 1
  %32 = sext i8 %31 to i32
  %33 = icmp ne i32 %32, 32
  br i1 %33, label %34, label %40

34:                                               ; preds = %27
  %35 = load i32, i32* %4, align 4
  %36 = sext i32 %35 to i64
  %37 = getelementptr inbounds [200 x i32], [200 x i32]* %2, i64 0, i64 %36
  %38 = load i32, i32* %37, align 4
  %39 = add nsw i32 %38, 1
  store i32 %39, i32* %37, align 4
  br label %55

40:                                               ; preds = %27, %20
  %41 = load i32, i32* %3, align 4
  %42 = sext i32 %41 to i64
  %43 = getelementptr inbounds [2000 x i8], [2000 x i8]* %1, i64 0, i64 %42
  %44 = load i8, i8* %43, align 1
  %45 = sext i8 %44 to i32
  %46 = icmp eq i32 %45, 32
  br i1 %46, label %47, label %54

47:                                               ; preds = %40
  %48 = load i32, i32* %3, align 4
  %49 = load i32, i32* %4, align 4
  %50 = sext i32 %49 to i64
  %51 = getelementptr inbounds [200 x i32], [200 x i32]* %8, i64 0, i64 %50
  store i32 %48, i32* %51, align 4
  %52 = load i32, i32* %4, align 4
  %53 = add nsw i32 %52, 1
  store i32 %53, i32* %4, align 4
  br label %54

54:                                               ; preds = %47, %40
  br label %55

55:                                               ; preds = %54, %34
  br label %56

56:                                               ; preds = %55
  %57 = load i32, i32* %3, align 4
  %58 = add nsw i32 %57, 1
  store i32 %58, i32* %3, align 4
  br label %16

59:                                               ; preds = %16
  %60 = load i32, i32* %5, align 4
  %61 = load i32, i32* %4, align 4
  %62 = sext i32 %61 to i64
  %63 = getelementptr inbounds [200 x i32], [200 x i32]* %8, i64 0, i64 %62
  store i32 %60, i32* %63, align 4
  store i32 1, i32* %3, align 4
  br label %64

64:                                               ; preds = %95, %59
  %65 = load i32, i32* %3, align 4
  %66 = load i32, i32* %4, align 4
  %67 = icmp sle i32 %65, %66
  br i1 %67, label %68, label %98

68:                                               ; preds = %64
  store i32 1, i32* %7, align 4
  br label %69

69:                                               ; preds = %85, %68
  %70 = load i32, i32* %7, align 4
  %71 = load i32, i32* %4, align 4
  %72 = icmp sle i32 %70, %71
  br i1 %72, label %73, label %88

73:                                               ; preds = %69
  %74 = load i32, i32* %3, align 4
  %75 = sext i32 %74 to i64
  %76 = getelementptr inbounds [200 x i32], [200 x i32]* %2, i64 0, i64 %75
  %77 = load i32, i32* %76, align 4
  %78 = load i32, i32* %7, align 4
  %79 = sext i32 %78 to i64
  %80 = getelementptr inbounds [200 x i32], [200 x i32]* %2, i64 0, i64 %79
  %81 = load i32, i32* %80, align 4
  %82 = icmp slt i32 %77, %81
  br i1 %82, label %83, label %84

83:                                               ; preds = %73
  br label %88

84:                                               ; preds = %73
  br label %85

85:                                               ; preds = %84
  %86 = load i32, i32* %7, align 4
  %87 = add nsw i32 %86, 1
  store i32 %87, i32* %7, align 4
  br label %69

88:                                               ; preds = %83, %69
  %89 = load i32, i32* %7, align 4
  %90 = load i32, i32* %4, align 4
  %91 = add nsw i32 %90, 1
  %92 = icmp eq i32 %89, %91
  br i1 %92, label %93, label %94

93:                                               ; preds = %88
  br label %98

94:                                               ; preds = %88
  br label %95

95:                                               ; preds = %94
  %96 = load i32, i32* %3, align 4
  %97 = add nsw i32 %96, 1
  store i32 %97, i32* %3, align 4
  br label %64

98:                                               ; preds = %93, %64
  %99 = load i32, i32* %3, align 4
  %100 = sext i32 %99 to i64
  %101 = getelementptr inbounds [200 x i32], [200 x i32]* %8, i64 0, i64 %100
  %102 = load i32, i32* %101, align 4
  %103 = load i32, i32* %3, align 4
  %104 = sext i32 %103 to i64
  %105 = getelementptr inbounds [200 x i32], [200 x i32]* %2, i64 0, i64 %104
  %106 = load i32, i32* %105, align 4
  %107 = sub nsw i32 %102, %106
  store i32 %107, i32* %7, align 4
  br label %108

108:                                              ; preds = %122, %98
  %109 = load i32, i32* %7, align 4
  %110 = load i32, i32* %3, align 4
  %111 = sext i32 %110 to i64
  %112 = getelementptr inbounds [200 x i32], [200 x i32]* %8, i64 0, i64 %111
  %113 = load i32, i32* %112, align 4
  %114 = icmp slt i32 %109, %113
  br i1 %114, label %115, label %125

115:                                              ; preds = %108
  %116 = load i32, i32* %7, align 4
  %117 = sext i32 %116 to i64
  %118 = getelementptr inbounds [2000 x i8], [2000 x i8]* %1, i64 0, i64 %117
  %119 = load i8, i8* %118, align 1
  %120 = sext i8 %119 to i32
  %121 = call i32 (i8*, ...) @printf(i8* getelementptr inbounds ([3 x i8], [3 x i8]* @.str, i64 0, i64 0), i32 %120)
  br label %122

122:                                              ; preds = %115
  %123 = load i32, i32* %7, align 4
  %124 = add nsw i32 %123, 1
  store i32 %124, i32* %7, align 4
  br label %108

125:                                              ; preds = %108
  %126 = call i32 (i8*, ...) @printf(i8* getelementptr inbounds ([2 x i8], [2 x i8]* @.str.1, i64 0, i64 0))
  store i32 1, i32* %3, align 4
  br label %127

127:                                              ; preds = %158, %125
  %128 = load i32, i32* %3, align 4
  %129 = load i32, i32* %4, align 4
  %130 = icmp sle i32 %128, %129
  br i1 %130, label %131, label %161

131:                                              ; preds = %127
  store i32 1, i32* %7, align 4
  br label %132

132:                                              ; preds = %148, %131
  %133 = load i32, i32* %7, align 4
  %134 = load i32, i32* %4, align 4
  %135 = icmp sle i32 %133, %134
  br i1 %135, label %136, label %151

136:                                              ; preds = %132
  %137 = load i32, i32* %3, align 4
  %138 = sext i32 %137 to i64
  %139 = getelementptr inbounds [200 x i32], [200 x i32]* %2, i64 0, i64 %138
  %140 = load i32, i32* %139, align 4
  %141 = load i32, i32* %7, align 4
  %142 = sext i32 %141 to i64
  %143 = getelementptr inbounds [200 x i32], [200 x i32]* %2, i64 0, i64 %142
  %144 = load i32, i32* %143, align 4
  %145 = icmp sgt i32 %140, %144
  br i1 %145, label %146, label %147

146:                                              ; preds = %136
  br label %151

147:                                              ; preds = %136
  br label %148

148:                                              ; preds = %147
  %149 = load i32, i32* %7, align 4
  %150 = add nsw i32 %149, 1
  store i32 %150, i32* %7, align 4
  br label %132

151:                                              ; preds = %146, %132
  %152 = load i32, i32* %7, align 4
  %153 = load i32, i32* %4, align 4
  %154 = add nsw i32 %153, 1
  %155 = icmp eq i32 %152, %154
  br i1 %155, label %156, label %157

156:                                              ; preds = %151
  br label %161

157:                                              ; preds = %151
  br label %158

158:                                              ; preds = %157
  %159 = load i32, i32* %3, align 4
  %160 = add nsw i32 %159, 1
  store i32 %160, i32* %3, align 4
  br label %127

161:                                              ; preds = %156, %127
  %162 = load i32, i32* %3, align 4
  %163 = sext i32 %162 to i64
  %164 = getelementptr inbounds [200 x i32], [200 x i32]* %8, i64 0, i64 %163
  %165 = load i32, i32* %164, align 4
  %166 = load i32, i32* %3, align 4
  %167 = sext i32 %166 to i64
  %168 = getelementptr inbounds [200 x i32], [200 x i32]* %2, i64 0, i64 %167
  %169 = load i32, i32* %168, align 4
  %170 = sub nsw i32 %165, %169
  store i32 %170, i32* %7, align 4
  br label %171

171:                                              ; preds = %185, %161
  %172 = load i32, i32* %7, align 4
  %173 = load i32, i32* %3, align 4
  %174 = sext i32 %173 to i64
  %175 = getelementptr inbounds [200 x i32], [200 x i32]* %8, i64 0, i64 %174
  %176 = load i32, i32* %175, align 4
  %177 = icmp slt i32 %172, %176
  br i1 %177, label %178, label %188

178:                                              ; preds = %171
  %179 = load i32, i32* %7, align 4
  %180 = sext i32 %179 to i64
  %181 = getelementptr inbounds [2000 x i8], [2000 x i8]* %1, i64 0, i64 %180
  %182 = load i8, i8* %181, align 1
  %183 = sext i8 %182 to i32
  %184 = call i32 (i8*, ...) @printf(i8* getelementptr inbounds ([3 x i8], [3 x i8]* @.str, i64 0, i64 0), i32 %183)
  br label %185

185:                                              ; preds = %178
  %186 = load i32, i32* %7, align 4
  %187 = add nsw i32 %186, 1
  store i32 %187, i32* %7, align 4
  br label %171

188:                                              ; preds = %171
  ret void
}

; Function Attrs: argmemonly nounwind willreturn
declare void @llvm.memset.p0i8.i64(i8* nocapture writeonly, i8, i64, i1 immarg) #1

declare dso_local i32 @gets(...) #2

; Function Attrs: nounwind readonly
declare dso_local i64 @strlen(i8*) #3

declare dso_local i32 @printf(i8*, ...) #2


!llvm.module.flags = !{!0}
!llvm.ident = !{!1}

!0 = !{i32 1, !"wchar_size", i32 4}
!1 = !{!"clang version 10.0.0-4ubuntu1 "}
